target datalayout = "e-m:e-p270:32:32-p271:32:32-p272:64:64-i64:64-i128:128-f80:128-n8:16:32:64-S128"
target triple = "x86_64-pc-linux-gnu"

@stderr = external global ptr, align 8
@.str = private unnamed_addr constant [24 x i8] c"Failed loading %s:  %s\0A\00", align 1

; Function Attrs: nounwind uwtable
define dso_local i32 @zend_load_extension(ptr noundef %0) #0 {
  %2 = alloca i32, align 4
  %3 = alloca ptr, align 8
  %4 = alloca ptr, align 8
  %5 = alloca i32, align 4
  store ptr %0, ptr %3, align 8, !tbaa !4
  call void @llvm.lifetime.start.p0(i64 8, ptr %4) #11
  %6 = load ptr, ptr %3, align 8, !tbaa !4
  %7 = call ptr @dlopen(ptr noundef %6, i32 noundef 265) #11
  store ptr %7, ptr %4, align 8, !tbaa !9
  %8 = load ptr, ptr %4, align 8, !tbaa !9
  %9 = icmp ne ptr %8, null
  br i1 %9, label %15, label %10

10:                                               ; preds = %1
  %11 = load ptr, ptr @stderr, align 8, !tbaa !10
  %12 = load ptr, ptr %3, align 8, !tbaa !4
  %13 = call ptr @dlerror() #11
  %14 = call i32 (ptr, ptr, ...) @fprintf(ptr noundef %11, ptr noundef @.str, ptr noundef %12, ptr noundef %13) #11
  store i32 -1, ptr %2, align 4
  store i32 1, ptr %5, align 4
  br label %19

15:                                               ; preds = %1
  %16 = load ptr, ptr %4, align 8, !tbaa !9
  %17 = load ptr, ptr %3, align 8, !tbaa !4
  %18 = call i32 @zend_load_extension_handle(ptr noundef %16, ptr noundef %17)
  store i32 %18, ptr %2, align 4
  store i32 1, ptr %5, align 4
  br label %19

19:                                               ; preds = %15, %10
  call void @llvm.lifetime.end.p0(i64 8, ptr %4) #11
  %20 = load i32, ptr %2, align 4
  ret i32 %20
}