; Function Attrs: nounwind uwtable
define dso_local range(i32 -1, 1) i32 @zend_load_extension(ptr noundef %0) local_unnamed_addr #0 {
  %2 = tail call ptr @dlopen(ptr noundef %0, i32 noundef 265) #14
  %.not = icmp eq ptr %2, null
  br i1 %.not, label %3, label %7

3:                                                ; preds = %1
  %4 = load ptr, ptr @stderr, align 8, !tbaa !4
  %5 = tail call ptr @dlerror() #14
  %6 = tail call i32 (ptr, ptr, ...) @fprintf(ptr noundef %4, ptr noundef nonnull @.str, ptr noundef %0, ptr noundef %5) #15
  br label %9

7:                                                ; preds = %1
  %8 = tail call i32 @zend_load_extension_handle(ptr noundef nonnull %2, ptr noundef %0)
  br label %9

9:                                                ; preds = %7, %3
  %.0 = phi i32 [ %8, %7 ], [ -1, %3 ]
  ret i32 %.0
}